; Function Attrs: nounwind uwtable
define dso_local i64 @similar_to_escape_2(ptr noundef readonly captures(none) %0) local_unnamed_addr #0 {
  %2 = getelementptr inbounds nuw i8, ptr %0, i64 32
  %3 = load i64, ptr %2, align 8
  %4 = inttoptr i64 %3 to ptr
  %5 = tail call ptr @pg_detoast_datum_packed(ptr noundef %4) #9
  %6 = getelementptr inbounds nuw i8, ptr %0, i64 48
  %7 = load i64, ptr %6, align 8
  %8 = inttoptr i64 %7 to ptr
  %9 = tail call ptr @pg_detoast_datum_packed(ptr noundef %8) #9
  %10 = tail call fastcc ptr @similar_escape_internal(ptr noundef %5, ptr noundef %9)
  %11 = ptrtoint ptr %10 to i64
  ret i64 %11
}